target datalayout = "e-m:e-p270:32:32-p271:32:32-p272:64:64-i64:64-i128:128-f80:128-n8:16:32:64-S128"
target triple = "x86_64-pc-linux-gnu"

%"struct.open_spiel::chess::Move" = type { %"struct.open_spiel::chess_common::Square", %"struct.open_spiel::chess_common::Square", %"struct.open_spiel::chess::Piece", i8, i32 }
%"struct.open_spiel::chess_common::Square" = type { i8, i8 }
%"struct.open_spiel::chess::Piece" = type { i8, i8 }
%class.anon = type <{ ptr, %"struct.open_spiel::chess::Move", [4 x i8] }>

; Function Attrs: mustprogress nounwind uwtable
define linkonce_odr dso_local noundef zeroext i1 @_ZNK10open_spiel5chess5PieceeqERKS1_(ptr noundef nonnull align 1 dereferenceable(2) %0, ptr noundef nonnull align 1 dereferenceable(2) %1) #5 comdat align 2 {
  %3 = alloca ptr, align 8
  %4 = alloca ptr, align 8
  store ptr %0, ptr %3, align 8
  store ptr %1, ptr %4, align 8
  %5 = load ptr, ptr %3, align 8
  %6 = getelementptr inbounds nuw %"struct.open_spiel::chess::Piece", ptr %5, i32 0, i32 1
  %7 = load i8, ptr %6, align 1
  %8 = load ptr, ptr %4, align 8
  %9 = getelementptr inbounds nuw %"struct.open_spiel::chess::Piece", ptr %8, i32 0, i32 1
  %10 = load i8, ptr %9, align 1
  %11 = icmp eq i8 %7, %10
  br i1 %11, label %12, label %19

12:                                               ; preds = %2
  %13 = getelementptr inbounds nuw %"struct.open_spiel::chess::Piece", ptr %5, i32 0, i32 0
  %14 = load i8, ptr %13, align 1
  %15 = load ptr, ptr %4, align 8
  %16 = getelementptr inbounds nuw %"struct.open_spiel::chess::Piece", ptr %15, i32 0, i32 0
  %17 = load i8, ptr %16, align 1
  %18 = icmp eq i8 %14, %17
  br label %19

19:                                               ; preds = %12, %2
  %20 = phi i1 [ false, %2 ], [ %18, %12 ]
  ret i1 %20
}

; Function Attrs: mustprogress nounwind uwtable
define linkonce_odr dso_local noundef zeroext i1 @_ZNK10open_spiel12chess_common6SquareeqERKS1_(ptr noundef nonnull align 1 dereferenceable(2) %0, ptr noundef nonnull align 1 dereferenceable(2) %1) #5 comdat align 2 {
  %3 = alloca ptr, align 8
  %4 = alloca ptr, align 8
  store ptr %0, ptr %3, align 8
  store ptr %1, ptr %4, align 8
  %5 = load ptr, ptr %3, align 8
  %6 = getelementptr inbounds nuw %"struct.open_spiel::chess_common::Square", ptr %5, i32 0, i32 0
  %7 = load i8, ptr %6, align 1
  %8 = sext i8 %7 to i32
  %9 = load ptr, ptr %4, align 8
  %10 = getelementptr inbounds nuw %"struct.open_spiel::chess_common::Square", ptr %9, i32 0, i32 0
  %11 = load i8, ptr %10, align 1
  %12 = sext i8 %11 to i32
  %13 = icmp eq i32 %8, %12
  br i1 %13, label %14, label %23

14:                                               ; preds = %2
  %15 = getelementptr inbounds nuw %"struct.open_spiel::chess_common::Square", ptr %5, i32 0, i32 1
  %16 = load i8, ptr %15, align 1
  %17 = sext i8 %16 to i32
  %18 = load ptr, ptr %4, align 8
  %19 = getelementptr inbounds nuw %"struct.open_spiel::chess_common::Square", ptr %18, i32 0, i32 1
  %20 = load i8, ptr %19, align 1
  %21 = sext i8 %20 to i32
  %22 = icmp eq i32 %17, %21
  br label %23

23:                                               ; preds = %14, %2
  %24 = phi i1 [ false, %2 ], [ %22, %14 ]
  ret i1 %24
}

; Function Attrs: mustprogress uwtable
define linkonce_odr dso_local noundef zeroext i1 @_ZNK10open_spiel5chess4MoveeqERKS1_(ptr noundef nonnull align 4 dereferenceable(12) %0, ptr noundef nonnull align 4 dereferenceable(12) %1) #4 comdat align 2 {
  %3 = alloca ptr, align 8
  %4 = alloca ptr, align 8
  store ptr %0, ptr %3, align 8
  store ptr %1, ptr %4, align 8
  %5 = load ptr, ptr %3, align 8
  %6 = getelementptr inbounds nuw %"struct.open_spiel::chess::Move", ptr %5, i32 0, i32 0
  %7 = load ptr, ptr %4, align 8
  %8 = getelementptr inbounds nuw %"struct.open_spiel::chess::Move", ptr %7, i32 0, i32 0
  %9 = call noundef zeroext i1 @_ZNK10open_spiel12chess_common6SquareeqERKS1_(ptr noundef nonnull align 1 dereferenceable(2) %6, ptr noundef nonnull align 1 dereferenceable(2) %8)
  br i1 %9, label %10, label %34

10:                                               ; preds = %2
  %11 = getelementptr inbounds nuw %"struct.open_spiel::chess::Move", ptr %5, i32 0, i32 1
  %12 = load ptr, ptr %4, align 8
  %13 = getelementptr inbounds nuw %"struct.open_spiel::chess::Move", ptr %12, i32 0, i32 1
  %14 = call noundef zeroext i1 @_ZNK10open_spiel12chess_common6SquareeqERKS1_(ptr noundef nonnull align 1 dereferenceable(2) %11, ptr noundef nonnull align 1 dereferenceable(2) %13)
  br i1 %14, label %15, label %34

15:                                               ; preds = %10
  %16 = getelementptr inbounds nuw %"struct.open_spiel::chess::Move", ptr %5, i32 0, i32 2
  %17 = load ptr, ptr %4, align 8
  %18 = getelementptr inbounds nuw %"struct.open_spiel::chess::Move", ptr %17, i32 0, i32 2
  %19 = call noundef zeroext i1 @_ZNK10open_spiel5chess5PieceeqERKS1_(ptr noundef nonnull align 1 dereferenceable(2) %16, ptr noundef nonnull align 1 dereferenceable(2) %18)
  br i1 %19, label %20, label %34

20:                                               ; preds = %15
  %21 = getelementptr inbounds nuw %"struct.open_spiel::chess::Move", ptr %5, i32 0, i32 3
  %22 = load i8, ptr %21, align 2
  %23 = load ptr, ptr %4, align 8
  %24 = getelementptr inbounds nuw %"struct.open_spiel::chess::Move", ptr %23, i32 0, i32 3
  %25 = load i8, ptr %24, align 2
  %26 = icmp eq i8 %22, %25
  br i1 %26, label %27, label %34

27:                                               ; preds = %20
  %28 = getelementptr inbounds nuw %"struct.open_spiel::chess::Move", ptr %5, i32 0, i32 4
  %29 = load i32, ptr %28, align 4
  %30 = load ptr, ptr %4, align 8
  %31 = getelementptr inbounds nuw %"struct.open_spiel::chess::Move", ptr %30, i32 0, i32 4
  %32 = load i32, ptr %31, align 4
  %33 = icmp eq i32 %29, %32
  br label %34

34:                                               ; preds = %27, %20, %15, %10, %2
  %35 = phi i1 [ false, %20 ], [ false, %15 ], [ false, %10 ], [ false, %2 ], [ %33, %27 ]
  ret i1 %35
}

; Function Attrs: mustprogress uwtable
define internal noundef zeroext i1 @"_ZZN10open_spiel10dark_chess12_GLOBAL__N_129ChessBoardFlagPropagationTestEbENK3$_0clERKNS_5chess4MoveE"(ptr noundef nonnull align 8 dereferenceable(20) %0, ptr noundef nonnull align 4 dereferenceable(12) %1) #4 align 2 {
  %3 = alloca i1, align 1
  %4 = alloca ptr, align 8
  %5 = alloca ptr, align 8
  store ptr %0, ptr %4, align 8
  store ptr %1, ptr %5, align 8
  %6 = load ptr, ptr %4, align 8
  %7 = load ptr, ptr %5, align 8
  %8 = getelementptr inbounds nuw %class.anon, ptr %6, i32 0, i32 1
  %9 = call noundef zeroext i1 @_ZNK10open_spiel5chess4MoveeqERKS1_(ptr noundef nonnull align 4 dereferenceable(12) %7, ptr noundef nonnull align 4 dereferenceable(12) %8)
  br i1 %9, label %10, label %13

10:                                               ; preds = %2
  %11 = getelementptr inbounds nuw %class.anon, ptr %6, i32 0, i32 0
  %12 = load ptr, ptr %11, align 8
  store i8 1, ptr %12, align 1
  store i1 false, ptr %3, align 1
  br label %14

13:                                               ; preds = %2
  store i1 true, ptr %3, align 1
  br label %14

14:                                               ; preds = %13, %10
  %15 = load i1, ptr %3, align 1
  ret i1 %15
}

; Function Attrs: mustprogress nounwind uwtable
define linkonce_odr dso_local noundef ptr @_ZNKSt9_Any_data9_M_accessEv(ptr noundef nonnull align 8 dereferenceable(16) %0) #5 comdat align 2 {
  %2 = alloca ptr, align 8
  store ptr %0, ptr %2, align 8
  %3 = load ptr, ptr %2, align 8
  %4 = getelementptr inbounds [16 x i8], ptr %3, i64 0, i64 0
  ret ptr %4
}

; Function Attrs: mustprogress uwtable
define internal noundef zeroext i1 @"_ZSt13__invoke_implIbRZN10open_spiel10dark_chess12_GLOBAL__N_129ChessBoardFlagPropagationTestEbE3$_0JRKNS0_5chess4MoveEEET_St14__invoke_otherOT0_DpOT1_"(ptr noundef nonnull align 8 dereferenceable(20) %0, ptr noundef nonnull align 4 dereferenceable(12) %1) #4 {
  %3 = alloca ptr, align 8
  %4 = alloca ptr, align 8
  store ptr %0, ptr %3, align 8
  store ptr %1, ptr %4, align 8
  %5 = load ptr, ptr %3, align 8
  %6 = load ptr, ptr %4, align 8
  %7 = call noundef zeroext i1 @"_ZZN10open_spiel10dark_chess12_GLOBAL__N_129ChessBoardFlagPropagationTestEbENK3$_0clERKNS_5chess4MoveE"(ptr noundef nonnull align 8 dereferenceable(20) %5, ptr noundef nonnull align 4 dereferenceable(12) %6)
  ret i1 %7
}

; Function Attrs: mustprogress nounwind uwtable
define internal noundef nonnull align 8 dereferenceable(8) ptr @"_ZNKSt9_Any_data9_M_accessIPZN10open_spiel10dark_chess12_GLOBAL__N_129ChessBoardFlagPropagationTestEbE3$_0EERKT_v"(ptr noundef nonnull align 8 dereferenceable(16) %0) #5 align 2 {
  %2 = alloca ptr, align 8
  store ptr %0, ptr %2, align 8
  %3 = load ptr, ptr %2, align 8
  %4 = call noundef ptr @_ZNKSt9_Any_data9_M_accessEv(ptr noundef nonnull align 8 dereferenceable(16) %3) #3
  ret ptr %4
}

; Function Attrs: mustprogress uwtable
define internal noundef zeroext i1 @"_ZSt10__invoke_rIbRZN10open_spiel10dark_chess12_GLOBAL__N_129ChessBoardFlagPropagationTestEbE3$_0JRKNS0_5chess4MoveEEENSt9enable_ifIX16is_invocable_r_vIT_T0_DpT1_EESA_E4typeEOSB_DpOSC_"(ptr noundef nonnull align 8 dereferenceable(20) %0, ptr noundef nonnull align 4 dereferenceable(12) %1) #4 {
  %3 = alloca ptr, align 8
  %4 = alloca ptr, align 8
  store ptr %0, ptr %3, align 8
  store ptr %1, ptr %4, align 8
  %5 = load ptr, ptr %3, align 8
  %6 = load ptr, ptr %4, align 8
  %7 = call noundef zeroext i1 @"_ZSt13__invoke_implIbRZN10open_spiel10dark_chess12_GLOBAL__N_129ChessBoardFlagPropagationTestEbE3$_0JRKNS0_5chess4MoveEEET_St14__invoke_otherOT0_DpOT1_"(ptr noundef nonnull align 8 dereferenceable(20) %5, ptr noundef nonnull align 4 dereferenceable(12) %6)
  ret i1 %7
}

; Function Attrs: mustprogress nounwind uwtable
define internal noundef ptr @"_ZNSt14_Function_base13_Base_managerIZN10open_spiel10dark_chess12_GLOBAL__N_129ChessBoardFlagPropagationTestEbE3$_0E14_M_get_pointerERKSt9_Any_data"(ptr noundef nonnull align 8 dereferenceable(16) %0) #5 align 2 {
  %2 = alloca ptr, align 8
  store ptr %0, ptr %2, align 8
  %3 = load ptr, ptr %2, align 8
  %4 = call noundef nonnull align 8 dereferenceable(8) ptr @"_ZNKSt9_Any_data9_M_accessIPZN10open_spiel10dark_chess12_GLOBAL__N_129ChessBoardFlagPropagationTestEbE3$_0EERKT_v"(ptr noundef nonnull align 8 dereferenceable(16) %3) #3
  %5 = load ptr, ptr %4, align 8
  ret ptr %5
}

; Function Attrs: mustprogress uwtable
define internal noundef zeroext i1 @"_ZNSt17_Function_handlerIFbRKN10open_spiel5chess4MoveEEZNS0_10dark_chess12_GLOBAL__N_129ChessBoardFlagPropagationTestEbE3$_0E9_M_invokeERKSt9_Any_dataS4_"(ptr noundef nonnull align 8 dereferenceable(16) %0, ptr noundef nonnull align 4 dereferenceable(12) %1) #4 align 2 {
  %3 = alloca ptr, align 8
  %4 = alloca ptr, align 8
  store ptr %0, ptr %3, align 8
  store ptr %1, ptr %4, align 8
  %5 = load ptr, ptr %3, align 8
  %6 = call noundef ptr @"_ZNSt14_Function_base13_Base_managerIZN10open_spiel10dark_chess12_GLOBAL__N_129ChessBoardFlagPropagationTestEbE3$_0E14_M_get_pointerERKSt9_Any_data"(ptr noundef nonnull align 8 dereferenceable(16) %5) #3
  %7 = load ptr, ptr %4, align 8
  %8 = call noundef zeroext i1 @"_ZSt10__invoke_rIbRZN10open_spiel10dark_chess12_GLOBAL__N_129ChessBoardFlagPropagationTestEbE3$_0JRKNS0_5chess4MoveEEENSt9enable_ifIX16is_invocable_r_vIT_T0_DpT1_EESA_E4typeEOSB_DpOSC_"(ptr noundef nonnull align 8 dereferenceable(20) %6, ptr noundef nonnull align 4 dereferenceable(12) %7)
  ret i1 %8
}