; Function Attrs: mustprogress nofree norecurse nosync nounwind willreturn memory(readwrite, inaccessiblemem: none) uwtable
define internal noundef zeroext i1 @"_ZNSt17_Function_handlerIFbRKN10open_spiel5chess4MoveEEZNS0_10dark_chess12_GLOBAL__N_129ChessBoardFlagPropagationTestEbE3$_0E9_M_invokeERKSt9_Any_dataS4_"(ptr nocapture noundef nonnull readonly align 8 dereferenceable(16) %0, ptr nocapture noundef nonnull readonly align 4 dereferenceable(12) %1) #17 align 2 {
  %.val = load ptr, ptr %0, align 8
  %3 = getelementptr inbounds nuw i8, ptr %.val, i64 8
  %4 = load i8, ptr %1, align 4
  %5 = load i8, ptr %3, align 1
  %6 = icmp eq i8 %4, %5
  %7 = getelementptr inbounds nuw i8, ptr %1, i64 1
  %8 = load i8, ptr %7, align 1
  %9 = getelementptr inbounds i8, ptr %.val, i64 9
  %10 = load i8, ptr %9, align 1
  %11 = icmp eq i8 %8, %10
  %12 = select i1 %6, i1 %11, i1 false
  br i1 %12, label %13, label %"_ZSt10__invoke_rIbRZN10open_spiel10dark_chess12_GLOBAL__N_129ChessBoardFlagPropagationTestEbE3$_0JRKNS0_5chess4MoveEEENSt9enable_ifIX16is_invocable_r_vIT_T0_DpT1_EESA_E4typeEOSB_DpOSC_.exit"

13:                                               ; preds = %2
  %14 = getelementptr inbounds nuw i8, ptr %1, i64 2
  %15 = getelementptr inbounds i8, ptr %.val, i64 10
  %16 = load i8, ptr %14, align 2
  %17 = load i8, ptr %15, align 1
  %18 = icmp eq i8 %16, %17
  %19 = getelementptr inbounds i8, ptr %1, i64 3
  %20 = load i8, ptr %19, align 1
  %21 = getelementptr inbounds i8, ptr %.val, i64 11
  %22 = load i8, ptr %21, align 1
  %23 = icmp eq i8 %20, %22
  %24 = select i1 %18, i1 %23, i1 false
  br i1 %24, label %25, label %"_ZSt10__invoke_rIbRZN10open_spiel10dark_chess12_GLOBAL__N_129ChessBoardFlagPropagationTestEbE3$_0JRKNS0_5chess4MoveEEENSt9enable_ifIX16is_invocable_r_vIT_T0_DpT1_EESA_E4typeEOSB_DpOSC_.exit"

25:                                               ; preds = %13
  %26 = getelementptr inbounds nuw i8, ptr %1, i64 4
  %27 = getelementptr inbounds i8, ptr %.val, i64 12
  %28 = getelementptr inbounds i8, ptr %1, i64 5
  %29 = load i8, ptr %28, align 1
  %30 = getelementptr inbounds i8, ptr %.val, i64 13
  %31 = load i8, ptr %30, align 1
  %32 = icmp eq i8 %29, %31
  %33 = load i8, ptr %26, align 4
  %34 = load i8, ptr %27, align 1
  %35 = icmp eq i8 %33, %34
  %36 = select i1 %32, i1 %35, i1 false
  br i1 %36, label %37, label %"_ZSt10__invoke_rIbRZN10open_spiel10dark_chess12_GLOBAL__N_129ChessBoardFlagPropagationTestEbE3$_0JRKNS0_5chess4MoveEEENSt9enable_ifIX16is_invocable_r_vIT_T0_DpT1_EESA_E4typeEOSB_DpOSC_.exit"

37:                                               ; preds = %25
  %38 = getelementptr inbounds nuw i8, ptr %1, i64 6
  %39 = load i8, ptr %38, align 2
  %40 = getelementptr inbounds i8, ptr %.val, i64 14
  %41 = load i8, ptr %40, align 2
  %42 = icmp eq i8 %39, %41
  br i1 %42, label %_ZNK10open_spiel5chess4MoveeqERKS1_.exit.i.i.i, label %"_ZSt10__invoke_rIbRZN10open_spiel10dark_chess12_GLOBAL__N_129ChessBoardFlagPropagationTestEbE3$_0JRKNS0_5chess4MoveEEENSt9enable_ifIX16is_invocable_r_vIT_T0_DpT1_EESA_E4typeEOSB_DpOSC_.exit"

_ZNK10open_spiel5chess4MoveeqERKS1_.exit.i.i.i:   ; preds = %37
  %43 = getelementptr inbounds nuw i8, ptr %1, i64 8
  %44 = load i32, ptr %43, align 4
  %45 = getelementptr inbounds i8, ptr %.val, i64 16
  %46 = load i32, ptr %45, align 4
  %47 = icmp eq i32 %44, %46
  br i1 %47, label %48, label %"_ZSt10__invoke_rIbRZN10open_spiel10dark_chess12_GLOBAL__N_129ChessBoardFlagPropagationTestEbE3$_0JRKNS0_5chess4MoveEEENSt9enable_ifIX16is_invocable_r_vIT_T0_DpT1_EESA_E4typeEOSB_DpOSC_.exit"

48:                                               ; preds = %_ZNK10open_spiel5chess4MoveeqERKS1_.exit.i.i.i
  %49 = load ptr, ptr %.val, align 8
  store i8 1, ptr %49, align 1
  br label %"_ZSt10__invoke_rIbRZN10open_spiel10dark_chess12_GLOBAL__N_129ChessBoardFlagPropagationTestEbE3$_0JRKNS0_5chess4MoveEEENSt9enable_ifIX16is_invocable_r_vIT_T0_DpT1_EESA_E4typeEOSB_DpOSC_.exit"

"_ZSt10__invoke_rIbRZN10open_spiel10dark_chess12_GLOBAL__N_129ChessBoardFlagPropagationTestEbE3$_0JRKNS0_5chess4MoveEEENSt9enable_ifIX16is_invocable_r_vIT_T0_DpT1_EESA_E4typeEOSB_DpOSC_.exit": ; preds = %2, %13, %25, %37, %_ZNK10open_spiel5chess4MoveeqERKS1_.exit.i.i.i, %48
  %.0.i.i.i = phi i1 [ true, %_ZNK10open_spiel5chess4MoveeqERKS1_.exit.i.i.i ], [ false, %48 ], [ true, %37 ], [ true, %25 ], [ true, %13 ], [ true, %2 ]
  ret i1 %.0.i.i.i
}